; Function Attrs: mustprogress uwtable
define hidden void @_ZN10sls_engine7mk_flipEP4sortRK3mpzjRS2_(ptr noundef nonnull align 8 dereferenceable(1512) %this, ptr noundef %s, ptr noundef nonnull align 8 dereferenceable(16) %old_value, i32 noundef %bit, ptr noundef nonnull align 8 dereferenceable(16) %flipped) local_unnamed_addr #3 align 2 {
entry:
  %mask = alloca %class.mpz, align 8
  %m_mpz_manager = getelementptr inbounds i8, ptr %this, i64 72
  %m_zero = getelementptr inbounds i8, ptr %this, i64 704
  %m_kind.i.i = getelementptr inbounds i8, ptr %this, i64 708
  %bf.load.i.i = load i8, ptr %m_kind.i.i, align 4
  %bf.clear.i.i = and i8 %bf.load.i.i, 1
  %cmp.i.i = icmp eq i8 %bf.clear.i.i, 0
  br i1 %cmp.i.i, label %if.then.i, label %if.else.i

if.then.i:                                        ; preds = %entry
  %0 = load i32, ptr %m_zero, align 8
  store i32 %0, ptr %flipped, align 8
  %m_kind.i = getelementptr inbounds i8, ptr %flipped, i64 4
  %bf.load.i = load i8, ptr %m_kind.i, align 4
  %bf.clear.i = and i8 %bf.load.i, -2
  store i8 %bf.clear.i, ptr %m_kind.i, align 4
  br label %_ZN11mpz_managerILb0EE3setER3mpzRKS1_.exit

if.else.i:                                        ; preds = %entry
  tail call void @_ZN11mpz_managerILb0EE7big_setER3mpzRKS1_(ptr noundef nonnull align 8 dereferenceable(600) %m_mpz_manager, ptr noundef nonnull align 8 dereferenceable(16) %flipped, ptr noundef nonnull align 8 dereferenceable(16) %m_zero)
  br label %_ZN11mpz_managerILb0EE3setER3mpzRKS1_.exit

_ZN11mpz_managerILb0EE3setER3mpzRKS1_.exit:       ; preds = %if.then.i, %if.else.i
  %m_bv_util = getelementptr inbounds i8, ptr %this, i64 760
  %call = tail call noundef zeroext i1 @_ZNK14bv_recognizers10is_bv_sortEPK4sort(ptr noundef nonnull align 4 dereferenceable(4) %m_bv_util, ptr noundef %s)
  br i1 %call, label %if.then, label %if.else

if.then:                                          ; preds = %_ZN11mpz_managerILb0EE3setER3mpzRKS1_.exit
  store i32 0, ptr %mask, align 8
  %m_kind.i5 = getelementptr inbounds i8, ptr %mask, i64 4
  store i8 0, ptr %m_kind.i5, align 4
  %m_ptr.i = getelementptr inbounds i8, ptr %mask, i64 8
  store ptr null, ptr %m_ptr.i, align 8
  %m_powers = getelementptr inbounds i8, ptr %this, i64 672
  %call3 = tail call noundef nonnull align 8 dereferenceable(16) ptr @_ZN6powersclEj(ptr noundef nonnull align 8 dereferenceable(32) %m_powers, i32 noundef %bit)
  %m_kind.i.i7 = getelementptr inbounds i8, ptr %call3, i64 4
  %bf.load.i.i8 = load i8, ptr %m_kind.i.i7, align 4
  %bf.clear.i.i9 = and i8 %bf.load.i.i8, 1
  %cmp.i.i10 = icmp eq i8 %bf.clear.i.i9, 0
  br i1 %cmp.i.i10, label %if.then.i12, label %if.else.i11

if.then.i12:                                      ; preds = %if.then
  %1 = load i32, ptr %call3, align 8
  store i32 %1, ptr %mask, align 8
  store i8 0, ptr %m_kind.i5, align 4
  br label %_ZN11mpz_managerILb0EE3setER3mpzRKS1_.exit16

if.else.i11:                                      ; preds = %if.then
  call void @_ZN11mpz_managerILb0EE7big_setER3mpzRKS1_(ptr noundef nonnull align 8 dereferenceable(600) %m_mpz_manager, ptr noundef nonnull align 8 dereferenceable(16) %mask, ptr noundef nonnull align 8 dereferenceable(16) %call3)
  br label %_ZN11mpz_managerILb0EE3setER3mpzRKS1_.exit16

_ZN11mpz_managerILb0EE3setER3mpzRKS1_.exit16:     ; preds = %if.then.i12, %if.else.i11
  call void @_ZN11mpz_managerILb0EE11bitwise_xorERK3mpzS3_RS1_(ptr noundef nonnull align 8 dereferenceable(600) %m_mpz_manager, ptr noundef nonnull align 8 dereferenceable(16) %old_value, ptr noundef nonnull align 8 dereferenceable(16) %mask, ptr noundef nonnull align 8 dereferenceable(16) %flipped)
  call void @_ZN11mpz_managerILb0EE3delEPS0_R3mpz(ptr noundef nonnull %m_mpz_manager, ptr noundef nonnull align 8 dereferenceable(16) %mask)
  br label %if.end13

if.else:                                          ; preds = %_ZN11mpz_managerILb0EE3setER3mpzRKS1_.exit
  %2 = load ptr, ptr %this, align 8
  %m_bool_sort.i = getelementptr inbounds i8, ptr %2, i64 840
  %3 = load ptr, ptr %m_bool_sort.i, align 8
  %cmp.i = icmp eq ptr %3, %s
  br i1 %cmp.i, label %if.then7, label %if.else12

if.then7:                                         ; preds = %if.else
  %4 = load i32, ptr %old_value, align 8
  %cmp.i17 = icmp eq i32 %4, 0
  %m_one = getelementptr inbounds i8, ptr %this, i64 720
  %cond-lvalue = select i1 %cmp.i17, ptr %m_one, ptr %m_zero
  %m_kind.i.i18 = getelementptr inbounds i8, ptr %cond-lvalue, i64 4
  %bf.load.i.i19 = load i8, ptr %m_kind.i.i18, align 4
  %bf.clear.i.i20 = and i8 %bf.load.i.i19, 1
  %cmp.i.i21 = icmp eq i8 %bf.clear.i.i20, 0
  br i1 %cmp.i.i21, label %if.then.i23, label %if.else.i22

if.then.i23:                                      ; preds = %if.then7
  %5 = load i32, ptr %cond-lvalue, align 8
  store i32 %5, ptr %flipped, align 8
  %m_kind.i24 = getelementptr inbounds i8, ptr %flipped, i64 4
  %bf.load.i25 = load i8, ptr %m_kind.i24, align 4
  %bf.clear.i26 = and i8 %bf.load.i25, -2
  store i8 %bf.clear.i26, ptr %m_kind.i24, align 4
  br label %if.end13

if.else.i22:                                      ; preds = %if.then7
  tail call void @_ZN11mpz_managerILb0EE7big_setER3mpzRKS1_(ptr noundef nonnull align 8 dereferenceable(600) %m_mpz_manager, ptr noundef nonnull align 8 dereferenceable(16) %flipped, ptr noundef nonnull align 8 dereferenceable(16) %cond-lvalue)
  br label %if.end13

if.else12:                                        ; preds = %if.else
  tail call void @_Z26notify_assertion_violationPKciS0_(ptr noundef nonnull @.str.1, i32 noundef 237, ptr noundef nonnull @.str.2)
  tail call void @exit(i32 noundef 107) #23
  unreachable

if.end13:                                         ; preds = %if.else.i22, %if.then.i23, %_ZN11mpz_managerILb0EE3setER3mpzRKS1_.exit16
  ret void
}